#include <math.h>
#include <stdio.h>
#include <stdlib.h>
#include <string.h>


int LanJieShu( int x, int y, int c[])
{
	int j, t;
	if( x == y - 1)
		return 1;
	t = 0;
    for(j = x + 1; j < y; j ++)
	{
		if((c[j] <= c[x]) && (LanJieShu(j, y, c) > t))
			t = LanJieShu(j, y, c);
	}
	return(t + 1);
}
void main()
{
	int n, i, u;
	int a[26], b[26];
	scanf("%d", &n);
	for(i = 0; i < n; i ++)
		scanf("%d", &a[i]);
    for(i = 0; i < n; i ++)
        b[i] = LanJieShu( i, n, a);
    u = 0;
	for(i = 0; i < n; i ++)
	{
		if(b[i] >= u)
			u = b[i];
	}
	printf("%d\n", u);
}