; ModuleID = '10/288.c'
source_filename = "10/288.c"
target datalayout = "e-m:e-p270:32:32-p271:32:32-p272:64:64-i64:64-f80:128-n8:16:32:64-S128"
target triple = "x86_64-pc-linux-gnu"

@.str = private unnamed_addr constant [3 x i8] c"%d\00", align 1
@.str.1 = private unnamed_addr constant [4 x i8] c"%d\0A\00", align 1

; Function Attrs: noinline nounwind uwtable
define dso_local i32 @LanJieShu(i32 %0, i32 %1, i32* %2) #0 {
  %4 = alloca i32, align 4
  %5 = alloca i32, align 4
  %6 = alloca i32, align 4
  %7 = alloca i32*, align 8
  %8 = alloca i32, align 4
  %9 = alloca i32, align 4
  store i32 %0, i32* %5, align 4
  store i32 %1, i32* %6, align 4
  store i32* %2, i32** %7, align 8
  %10 = load i32, i32* %5, align 4
  %11 = load i32, i32* %6, align 4
  %12 = sub nsw i32 %11, 1
  %13 = icmp eq i32 %10, %12
  br i1 %13, label %14, label %15

14:                                               ; preds = %3
  store i32 1, i32* %4, align 4
  br label %53

15:                                               ; preds = %3
  store i32 0, i32* %9, align 4
  %16 = load i32, i32* %5, align 4
  %17 = add nsw i32 %16, 1
  store i32 %17, i32* %8, align 4
  br label %18

18:                                               ; preds = %47, %15
  %19 = load i32, i32* %8, align 4
  %20 = load i32, i32* %6, align 4
  %21 = icmp slt i32 %19, %20
  br i1 %21, label %22, label %50

22:                                               ; preds = %18
  %23 = load i32*, i32** %7, align 8
  %24 = load i32, i32* %8, align 4
  %25 = sext i32 %24 to i64
  %26 = getelementptr inbounds i32, i32* %23, i64 %25
  %27 = load i32, i32* %26, align 4
  %28 = load i32*, i32** %7, align 8
  %29 = load i32, i32* %5, align 4
  %30 = sext i32 %29 to i64
  %31 = getelementptr inbounds i32, i32* %28, i64 %30
  %32 = load i32, i32* %31, align 4
  %33 = icmp sle i32 %27, %32
  br i1 %33, label %34, label %46

34:                                               ; preds = %22
  %35 = load i32, i32* %8, align 4
  %36 = load i32, i32* %6, align 4
  %37 = load i32*, i32** %7, align 8
  %38 = call i32 @LanJieShu(i32 %35, i32 %36, i32* %37)
  %39 = load i32, i32* %9, align 4
  %40 = icmp sgt i32 %38, %39
  br i1 %40, label %41, label %46

41:                                               ; preds = %34
  %42 = load i32, i32* %8, align 4
  %43 = load i32, i32* %6, align 4
  %44 = load i32*, i32** %7, align 8
  %45 = call i32 @LanJieShu(i32 %42, i32 %43, i32* %44)
  store i32 %45, i32* %9, align 4
  br label %46

46:                                               ; preds = %41, %34, %22
  br label %47

47:                                               ; preds = %46
  %48 = load i32, i32* %8, align 4
  %49 = add nsw i32 %48, 1
  store i32 %49, i32* %8, align 4
  br label %18

50:                                               ; preds = %18
  %51 = load i32, i32* %9, align 4
  %52 = add nsw i32 %51, 1
  store i32 %52, i32* %4, align 4
  br label %53

53:                                               ; preds = %50, %14
  %54 = load i32, i32* %4, align 4
  ret i32 %54
}

; Function Attrs: noinline nounwind uwtable
define dso_local void @main() #0 {
  %1 = alloca i32, align 4
  %2 = alloca i32, align 4
  %3 = alloca i32, align 4
  %4 = alloca [26 x i32], align 16
  %5 = alloca [26 x i32], align 16
  %6 = call i32 (i8*, ...) @__isoc99_scanf(i8* getelementptr inbounds ([3 x i8], [3 x i8]* @.str, i64 0, i64 0), i32* %1)
  store i32 0, i32* %2, align 4
  br label %7

7:                                                ; preds = %16, %0
  %8 = load i32, i32* %2, align 4
  %9 = load i32, i32* %1, align 4
  %10 = icmp slt i32 %8, %9
  br i1 %10, label %11, label %19

11:                                               ; preds = %7
  %12 = load i32, i32* %2, align 4
  %13 = sext i32 %12 to i64
  %14 = getelementptr inbounds [26 x i32], [26 x i32]* %4, i64 0, i64 %13
  %15 = call i32 (i8*, ...) @__isoc99_scanf(i8* getelementptr inbounds ([3 x i8], [3 x i8]* @.str, i64 0, i64 0), i32* %14)
  br label %16

16:                                               ; preds = %11
  %17 = load i32, i32* %2, align 4
  %18 = add nsw i32 %17, 1
  store i32 %18, i32* %2, align 4
  br label %7

19:                                               ; preds = %7
  store i32 0, i32* %2, align 4
  br label %20

20:                                               ; preds = %32, %19
  %21 = load i32, i32* %2, align 4
  %22 = load i32, i32* %1, align 4
  %23 = icmp slt i32 %21, %22
  br i1 %23, label %24, label %35

24:                                               ; preds = %20
  %25 = load i32, i32* %2, align 4
  %26 = load i32, i32* %1, align 4
  %27 = getelementptr inbounds [26 x i32], [26 x i32]* %4, i64 0, i64 0
  %28 = call i32 @LanJieShu(i32 %25, i32 %26, i32* %27)
  %29 = load i32, i32* %2, align 4
  %30 = sext i32 %29 to i64
  %31 = getelementptr inbounds [26 x i32], [26 x i32]* %5, i64 0, i64 %30
  store i32 %28, i32* %31, align 4
  br label %32

32:                                               ; preds = %24
  %33 = load i32, i32* %2, align 4
  %34 = add nsw i32 %33, 1
  store i32 %34, i32* %2, align 4
  br label %20

35:                                               ; preds = %20
  store i32 0, i32* %3, align 4
  store i32 0, i32* %2, align 4
  br label %36

36:                                               ; preds = %53, %35
  %37 = load i32, i32* %2, align 4
  %38 = load i32, i32* %1, align 4
  %39 = icmp slt i32 %37, %38
  br i1 %39, label %40, label %56

40:                                               ; preds = %36
  %41 = load i32, i32* %2, align 4
  %42 = sext i32 %41 to i64
  %43 = getelementptr inbounds [26 x i32], [26 x i32]* %5, i64 0, i64 %42
  %44 = load i32, i32* %43, align 4
  %45 = load i32, i32* %3, align 4
  %46 = icmp sge i32 %44, %45
  br i1 %46, label %47, label %52

47:                                               ; preds = %40
  %48 = load i32, i32* %2, align 4
  %49 = sext i32 %48 to i64
  %50 = getelementptr inbounds [26 x i32], [26 x i32]* %5, i64 0, i64 %49
  %51 = load i32, i32* %50, align 4
  store i32 %51, i32* %3, align 4
  br label %52

52:                                               ; preds = %47, %40
  br label %53

53:                                               ; preds = %52
  %54 = load i32, i32* %2, align 4
  %55 = add nsw i32 %54, 1
  store i32 %55, i32* %2, align 4
  br label %36

56:                                               ; preds = %36
  %57 = load i32, i32* %3, align 4
  %58 = call i32 (i8*, ...) @printf(i8* getelementptr inbounds ([4 x i8], [4 x i8]* @.str.1, i64 0, i64 0), i32 %57)
  ret void
}

declare dso_local i32 @__isoc99_scanf(i8*, ...) #1

declare dso_local i32 @printf(i8*, ...) #1


!llvm.module.flags = !{!0}
!llvm.ident = !{!1}

!0 = !{i32 1, !"wchar_size", i32 4}
!1 = !{!"clang version 10.0.0-4ubuntu1 "}
